; Function Attrs: mustprogress nofree norecurse nosync nounwind willreturn memory(read, inaccessiblemem: none) uwtable
define range(i32 -13421772, 13421773) i32 @lv_display_dpx(ptr noundef readonly %0, i32 noundef %1) local_unnamed_addr #6 {
  %3 = icmp eq i32 %1, 0
  br i1 %3, label %21, label %4

4:                                                ; preds = %2
  %5 = icmp eq ptr %0, null
  br i1 %5, label %6, label %lv_display_get_dpi.exit.thread9

6:                                                ; preds = %4
  %7 = load ptr, ptr getelementptr inbounds nuw (i8, ptr @lv_global, i64 40), align 8, !tbaa !33
  %8 = icmp eq ptr %7, null
  br i1 %8, label %lv_display_get_dpi.exit.thread, label %lv_display_get_dpi.exit

lv_display_get_dpi.exit:                          ; preds = %6
  %9 = getelementptr inbounds nuw i8, ptr %7, i64 24
  %10 = load i32, ptr %9, align 8, !tbaa !21
  %11 = mul nsw i32 %10, %1
  %12 = icmp sgt i32 %11, 239
  br i1 %12, label %lv_display_get_dpi.exit7, label %21

lv_display_get_dpi.exit.thread9:                  ; preds = %4
  %13 = getelementptr inbounds nuw i8, ptr %0, i64 24
  %14 = load i32, ptr %13, align 8, !tbaa !21
  %15 = mul nsw i32 %14, %1
  %16 = icmp sgt i32 %15, 239
  br i1 %16, label %lv_display_get_dpi.exit7, label %21

lv_display_get_dpi.exit.thread:                   ; preds = %6
  %17 = icmp sgt i32 %1, 1
  br i1 %17, label %lv_display_get_dpi.exit7, label %21

lv_display_get_dpi.exit7:                         ; preds = %lv_display_get_dpi.exit.thread9, %lv_display_get_dpi.exit, %lv_display_get_dpi.exit.thread
  %.03.i6 = phi i32 [ 130, %lv_display_get_dpi.exit.thread ], [ %14, %lv_display_get_dpi.exit.thread9 ], [ %10, %lv_display_get_dpi.exit ]
  %18 = mul nsw i32 %.03.i6, %1
  %19 = add nsw i32 %18, 80
  %20 = sdiv i32 %19, 160
  br label %21

21:                                               ; preds = %lv_display_get_dpi.exit.thread9, %lv_display_get_dpi.exit.thread, %lv_display_get_dpi.exit7, %lv_display_get_dpi.exit, %2
  %22 = phi i32 [ 0, %2 ], [ %20, %lv_display_get_dpi.exit7 ], [ 1, %lv_display_get_dpi.exit ], [ 1, %lv_display_get_dpi.exit.thread ], [ 1, %lv_display_get_dpi.exit.thread9 ]
  ret i32 %22
}